target datalayout = "e-m:e-p270:32:32-p271:32:32-p272:64:64-i64:64-i128:128-f80:128-n8:16:32:64-S128"
target triple = "x86_64-pc-linux-gnu"

%struct.archive_crypto_ctx = type { ptr, ptr, [32 x i8], i32, [16 x i8], [16 x i8], i32 }

; Function Attrs: nounwind uwtable
define internal i32 @aes_ctr_init(ptr noundef %0, ptr noundef %1, i64 noundef %2) #0 {
  %4 = alloca i32, align 4
  %5 = alloca ptr, align 8
  %6 = alloca ptr, align 8
  %7 = alloca i64, align 8
  store ptr %0, ptr %5, align 8, !tbaa !13
  store ptr %1, ptr %6, align 8, !tbaa !4
  store i64 %2, ptr %7, align 8, !tbaa !9
  %8 = call ptr @EVP_CIPHER_CTX_new()
  %9 = load ptr, ptr %5, align 8, !tbaa !13
  %10 = getelementptr inbounds nuw %struct.archive_crypto_ctx, ptr %9, i32 0, i32 0
  store ptr %8, ptr %10, align 8, !tbaa !14
  %11 = icmp eq ptr %8, null
  br i1 %11, label %12, label %13

12:                                               ; preds = %3
  store i32 -1, ptr %4, align 4
  br label %45

13:                                               ; preds = %3
  %14 = load i64, ptr %7, align 8, !tbaa !9
  switch i64 %14, label %27 [
    i64 16, label %15
    i64 24, label %19
    i64 32, label %23
  ]

15:                                               ; preds = %13
  %16 = call ptr @EVP_aes_128_ecb()
  %17 = load ptr, ptr %5, align 8, !tbaa !13
  %18 = getelementptr inbounds nuw %struct.archive_crypto_ctx, ptr %17, i32 0, i32 1
  store ptr %16, ptr %18, align 8, !tbaa !18
  br label %30

19:                                               ; preds = %13
  %20 = call ptr @EVP_aes_192_ecb()
  %21 = load ptr, ptr %5, align 8, !tbaa !13
  %22 = getelementptr inbounds nuw %struct.archive_crypto_ctx, ptr %21, i32 0, i32 1
  store ptr %20, ptr %22, align 8, !tbaa !18
  br label %30

23:                                               ; preds = %13
  %24 = call ptr @EVP_aes_256_ecb()
  %25 = load ptr, ptr %5, align 8, !tbaa !13
  %26 = getelementptr inbounds nuw %struct.archive_crypto_ctx, ptr %25, i32 0, i32 1
  store ptr %24, ptr %26, align 8, !tbaa !18
  br label %30

27:                                               ; preds = %13
  %28 = load ptr, ptr %5, align 8, !tbaa !13
  %29 = getelementptr inbounds nuw %struct.archive_crypto_ctx, ptr %28, i32 0, i32 1
  store ptr null, ptr %29, align 8, !tbaa !18
  store i32 -1, ptr %4, align 4
  br label %45

30:                                               ; preds = %23, %19, %15
  %31 = load i64, ptr %7, align 8, !tbaa !9
  %32 = trunc i64 %31 to i32
  %33 = load ptr, ptr %5, align 8, !tbaa !13
  %34 = getelementptr inbounds nuw %struct.archive_crypto_ctx, ptr %33, i32 0, i32 3
  store i32 %32, ptr %34, align 8, !tbaa !19
  %35 = load ptr, ptr %5, align 8, !tbaa !13
  %36 = getelementptr inbounds nuw %struct.archive_crypto_ctx, ptr %35, i32 0, i32 2
  %37 = getelementptr inbounds [32 x i8], ptr %36, i64 0, i64 0
  %38 = load ptr, ptr %6, align 8, !tbaa !4
  %39 = load i64, ptr %7, align 8, !tbaa !9
  call void @llvm.memcpy.p0.p0.i64(ptr align 8 %37, ptr align 1 %38, i64 %39, i1 false)
  %40 = load ptr, ptr %5, align 8, !tbaa !13
  %41 = getelementptr inbounds nuw %struct.archive_crypto_ctx, ptr %40, i32 0, i32 4
  %42 = getelementptr inbounds [16 x i8], ptr %41, i64 0, i64 0
  call void @llvm.memset.p0.i64(ptr align 4 %42, i8 0, i64 16, i1 false)
  %43 = load ptr, ptr %5, align 8, !tbaa !13
  %44 = getelementptr inbounds nuw %struct.archive_crypto_ctx, ptr %43, i32 0, i32 6
  store i32 16, ptr %44, align 4, !tbaa !20
  store i32 0, ptr %4, align 4
  br label %45

45:                                               ; preds = %30, %27, %12
  %46 = load i32, ptr %4, align 4
  ret i32 %46
}