; Function Attrs: nounwind uwtable
define internal range(i32 -1, 1) i32 @aes_ctr_init(ptr noundef writeonly captures(none) initializes((0, 8)) %0, ptr noundef readonly captures(none) %1, i64 noundef %2) #1 {
  %4 = tail call ptr @EVP_CIPHER_CTX_new() #7
  store ptr %4, ptr %0, align 8, !tbaa !4
  %5 = icmp eq ptr %4, null
  br i1 %5, label %22, label %6

6:                                                ; preds = %3
  switch i64 %2, label %13 [
    i64 16, label %7
    i64 24, label %9
    i64 32, label %11
  ]

7:                                                ; preds = %6
  %8 = tail call ptr @EVP_aes_128_ecb() #7
  br label %15

9:                                                ; preds = %6
  %10 = tail call ptr @EVP_aes_192_ecb() #7
  br label %15

11:                                               ; preds = %6
  %12 = tail call ptr @EVP_aes_256_ecb() #7
  br label %15

13:                                               ; preds = %6
  %14 = getelementptr inbounds nuw i8, ptr %0, i64 8
  store ptr null, ptr %14, align 8, !tbaa !12
  br label %22

15:                                               ; preds = %11, %9, %7
  %.sink = phi ptr [ %12, %11 ], [ %10, %9 ], [ %8, %7 ]
  %16 = getelementptr inbounds nuw i8, ptr %0, i64 8
  store ptr %.sink, ptr %16, align 8, !tbaa !12
  %17 = trunc i64 %2 to i32
  %18 = getelementptr inbounds nuw i8, ptr %0, i64 48
  store i32 %17, ptr %18, align 8, !tbaa !13
  %19 = getelementptr inbounds nuw i8, ptr %0, i64 16
  tail call void @llvm.memcpy.p0.p0.i64(ptr nonnull align 8 %19, ptr align 1 %1, i64 %2, i1 false)
  %20 = getelementptr inbounds nuw i8, ptr %0, i64 52
  tail call void @llvm.memset.p0.i64(ptr noundef nonnull align 4 dereferenceable(16) %20, i8 0, i64 16, i1 false)
  %21 = getelementptr inbounds nuw i8, ptr %0, i64 84
  store i32 16, ptr %21, align 4, !tbaa !14
  br label %22

22:                                               ; preds = %3, %15, %13
  %.0 = phi i32 [ -1, %13 ], [ 0, %15 ], [ -1, %3 ]
  ret i32 %.0
}